; Function Attrs: mustprogress nounwind uwtable
define internal fastcc void @_ZN12_GLOBAL__N_110setunset_tD2Ev(ptr nocapture noundef nonnull readonly align 8 dereferenceable(41) %0) unnamed_addr #3 align 2 personality ptr @__gxx_personality_v0 {
  %2 = getelementptr inbounds i8, ptr %0, i64 16
  %3 = load ptr, ptr %2, align 8
  %.not.i.i.i.i = icmp eq ptr %3, null
  br i1 %.not.i.i.i.i, label %_ZN5Yosys5RTLIL5ConstD2Ev.exit, label %4

4:                                                ; preds = %1
  tail call void @_ZdlPv(ptr noundef nonnull %3) #19
  br label %_ZN5Yosys5RTLIL5ConstD2Ev.exit

_ZN5Yosys5RTLIL5ConstD2Ev.exit:                   ; preds = %1, %4
  %5 = load i32, ptr %0, align 8
  %6 = load i8, ptr @_ZN5Yosys5RTLIL8IdString17destruct_guard_okE, align 1
  %7 = and i8 %6, 1
  %8 = icmp ne i8 %7, 0
  %9 = icmp ne i32 %5, 0
  %or.cond.i.i = and i1 %9, %8
  br i1 %or.cond.i.i, label %10, label %_ZN5Yosys5RTLIL8IdStringD2Ev.exit

10:                                               ; preds = %_ZN5Yosys5RTLIL5ConstD2Ev.exit
  %11 = sext i32 %5 to i64
  %12 = load ptr, ptr @_ZN5Yosys5RTLIL8IdString24global_refcount_storage_E, align 8
  %13 = getelementptr inbounds i32, ptr %12, i64 %11
  %14 = load i32, ptr %13, align 4
  %15 = add nsw i32 %14, -1
  store i32 %15, ptr %13, align 4
  %16 = icmp sgt i32 %14, 1
  br i1 %16, label %_ZN5Yosys5RTLIL8IdStringD2Ev.exit, label %17

17:                                               ; preds = %10
  invoke void @_ZN5Yosys5RTLIL8IdString14free_referenceEi(i32 noundef %5)
          to label %_ZN5Yosys5RTLIL8IdStringD2Ev.exit unwind label %18

18:                                               ; preds = %17
  %19 = landingpad { ptr, i32 }
          catch ptr null
  %20 = extractvalue { ptr, i32 } %19, 0
  tail call void @__clang_call_terminate(ptr %20) #20
  unreachable

_ZN5Yosys5RTLIL8IdStringD2Ev.exit:                ; preds = %_ZN5Yosys5RTLIL5ConstD2Ev.exit, %10, %17
  ret void
}